; Function Attrs: mustprogress uwtable
define noundef zeroext i1 @_ZNK32pxrInternal_v0_24__pxrReserved__16UsdGeomXformable27TransformMightBeTimeVaryingERKSt6vectorINS_14UsdGeomXformOpESaIS2_EE(ptr nocapture noundef nonnull readnone align 8 dereferenceable(24) %0, ptr nocapture noundef nonnull readonly align 8 dereferenceable(24) %1) local_unnamed_addr #0 align 2 {
  %3 = load ptr, ptr %1, align 8
  %4 = getelementptr inbounds nuw i8, ptr %1, i64 8
  %5 = load ptr, ptr %4, align 8
  %6 = icmp eq ptr %3, %5
  br i1 %6, label %9, label %7

7:                                                ; preds = %2
  %8 = tail call fastcc noundef zeroext i1 @_ZN32pxrInternal_v0_24__pxrReserved__L28_TransformMightBeTimeVaryingERKSt6vectorINS_14UsdGeomXformOpESaIS1_EE(ptr %3, ptr %5)
  br label %9

9:                                                ; preds = %2, %7
  %.0 = phi i1 [ %8, %7 ], [ false, %2 ]
  ret i1 %.0
}